; Function Attrs: mustprogress nofree norecurse nosync nounwind willreturn memory(argmem: read) uwtable
define noundef i64 @_ZNK5faiss10IndexIVFPQ25train_encoder_num_vectorsEv(ptr noundef nonnull readonly align 8 captures(none) dereferenceable(544) %0) unnamed_addr #3 align 2 {
  %2 = getelementptr inbounds nuw i8, ptr %0, i64 356
  %3 = load i32, ptr %2, align 4, !tbaa !73
  %4 = sext i32 %3 to i64
  %5 = getelementptr inbounds nuw i8, ptr %0, i64 320
  %6 = load i64, ptr %5, align 8, !tbaa !74
  %7 = mul i64 %6, %4
  ret i64 %7
}